; ModuleID = '26/638.c'
source_filename = "26/638.c"
target datalayout = "e-m:e-p270:32:32-p271:32:32-p272:64:64-i64:64-f80:128-n8:16:32:64-S128"
target triple = "x86_64-pc-linux-gnu"

@.str = private unnamed_addr constant [3 x i8] c"%c\00", align 1

; Function Attrs: noinline nounwind uwtable
define dso_local void @main() #0 {
  %1 = alloca i32, align 4
  %2 = alloca i8, align 1
  store i32 0, i32* %1, align 4
  store i8 97, i8* %2, align 1
  br label %3

3:                                                ; preds = %37, %34, %0
  %4 = load i8, i8* %2, align 1
  %5 = sext i8 %4 to i32
  %6 = icmp ne i32 %5, 10
  br i1 %6, label %7, label %38

7:                                                ; preds = %3
  %8 = call i32 (i8*, ...) @__isoc99_scanf(i8* getelementptr inbounds ([3 x i8], [3 x i8]* @.str, i64 0, i64 0), i8* %2)
  %9 = load i8, i8* %2, align 1
  %10 = sext i8 %9 to i32
  %11 = icmp ne i32 %10, 32
  br i1 %11, label %12, label %16

12:                                               ; preds = %7
  %13 = load i8, i8* %2, align 1
  %14 = sext i8 %13 to i32
  %15 = call i32 (i8*, ...) @printf(i8* getelementptr inbounds ([3 x i8], [3 x i8]* @.str, i64 0, i64 0), i32 %14)
  store i32 0, i32* %1, align 4
  br label %37

16:                                               ; preds = %7
  %17 = load i8, i8* %2, align 1
  %18 = sext i8 %17 to i32
  %19 = icmp eq i32 %18, 32
  br i1 %19, label %20, label %27

20:                                               ; preds = %16
  %21 = load i32, i32* %1, align 4
  %22 = icmp eq i32 %21, 0
  br i1 %22, label %23, label %27

23:                                               ; preds = %20
  store i32 1, i32* %1, align 4
  %24 = load i8, i8* %2, align 1
  %25 = sext i8 %24 to i32
  %26 = call i32 (i8*, ...) @printf(i8* getelementptr inbounds ([3 x i8], [3 x i8]* @.str, i64 0, i64 0), i32 %25)
  br label %36

27:                                               ; preds = %20, %16
  %28 = load i8, i8* %2, align 1
  %29 = sext i8 %28 to i32
  %30 = icmp eq i32 %29, 32
  br i1 %30, label %31, label %35

31:                                               ; preds = %27
  %32 = load i32, i32* %1, align 4
  %33 = icmp eq i32 %32, 1
  br i1 %33, label %34, label %35

34:                                               ; preds = %31
  br label %3

35:                                               ; preds = %31, %27
  br label %36

36:                                               ; preds = %35, %23
  br label %37

37:                                               ; preds = %36, %12
  br label %3

38:                                               ; preds = %3
  ret void
}

declare dso_local i32 @__isoc99_scanf(i8*, ...) #1

declare dso_local i32 @printf(i8*, ...) #1


!llvm.module.flags = !{!0}
!llvm.ident = !{!1}

!0 = !{i32 1, !"wchar_size", i32 4}
!1 = !{!"clang version 10.0.0-4ubuntu1 "}
